target datalayout = "e-m:e-p270:32:32-p271:32:32-p272:64:64-i64:64-i128:128-f80:128-n8:16:32:64-S128"
target triple = "x86_64-pc-linux-gnu"

%struct.ForEachState = type { ptr, i32 }
%struct.List = type { i32, i32, i32, ptr, [0 x %union.ListCell] }
%union.ListCell = type { ptr }
%struct.Node = type { i32 }
%struct.TargetEntry = type { %struct.Expr, ptr, i16, ptr, i32, i32, i16, i8 }
%struct.Expr = type { i32 }
%struct.Var = type { %struct.Expr, i32, i16, i32, i32, i32, ptr, i32, i32, i32, i16, i32 }
%struct.indexed_tlist = type { ptr, i32, i8, i8, [0 x %struct.tlist_vinfo] }
%struct.tlist_vinfo = type { i32, i16, i16, ptr }
%struct.PlaceHolderVar = type { %struct.Expr, ptr, ptr, ptr, i32, i32 }

@.str.1 = private unnamed_addr constant [10 x i8] c"setrefs.c\00", align 1
@.str.5 = private unnamed_addr constant [59 x i8] c"wrong phnullingrels %s (expected %s) for PlaceHolderVar %d\00", align 1
@__func__.search_indexed_tlist_for_phv = private unnamed_addr constant [29 x i8] c"search_indexed_tlist_for_phv\00", align 1

; Function Attrs: nounwind uwtable
define internal ptr @search_indexed_tlist_for_phv(ptr noundef %0, ptr noundef %1, i32 noundef %2, i32 noundef %3) #0 {
  %5 = alloca ptr, align 8
  %6 = alloca ptr, align 8
  %7 = alloca ptr, align 8
  %8 = alloca i32, align 4
  %9 = alloca i32, align 4
  %10 = alloca ptr, align 8
  %11 = alloca %struct.ForEachState, align 8
  %12 = alloca i32, align 4
  %13 = alloca ptr, align 8
  %14 = alloca ptr, align 8
  %15 = alloca ptr, align 8
  store ptr %0, ptr %6, align 8
  store ptr %1, ptr %7, align 8
  store i32 %2, ptr %8, align 4
  store i32 %3, ptr %9, align 4
  call void @llvm.lifetime.start.p0(i64 8, ptr %10) #8
  call void @llvm.lifetime.start.p0(i64 16, ptr %11) #8
  %16 = getelementptr inbounds nuw %struct.ForEachState, ptr %11, i32 0, i32 0
  %17 = load ptr, ptr %7, align 8
  %18 = getelementptr inbounds nuw %struct.indexed_tlist, ptr %17, i32 0, i32 0
  %19 = load ptr, ptr %18, align 8
  store ptr %19, ptr %16, align 8
  %20 = getelementptr inbounds nuw %struct.ForEachState, ptr %11, i32 0, i32 1
  store i32 0, ptr %20, align 8
  %21 = getelementptr i8, ptr %11, i64 12
  call void @llvm.memset.p0.i64(ptr align 4 %21, i8 0, i64 4, i1 false)
  br label %22

22:                                               ; preds = %140, %4
  %23 = getelementptr inbounds nuw %struct.ForEachState, ptr %11, i32 0, i32 0
  %24 = load ptr, ptr %23, align 8
  %25 = icmp ne ptr %24, null
  br i1 %25, label %26, label %43

26:                                               ; preds = %22
  %27 = getelementptr inbounds nuw %struct.ForEachState, ptr %11, i32 0, i32 1
  %28 = load i32, ptr %27, align 8
  %29 = getelementptr inbounds nuw %struct.ForEachState, ptr %11, i32 0, i32 0
  %30 = load ptr, ptr %29, align 8
  %31 = getelementptr inbounds nuw %struct.List, ptr %30, i32 0, i32 1
  %32 = load i32, ptr %31, align 4
  %33 = icmp slt i32 %28, %32
  br i1 %33, label %34, label %43

34:                                               ; preds = %26
  %35 = getelementptr inbounds nuw %struct.ForEachState, ptr %11, i32 0, i32 0
  %36 = load ptr, ptr %35, align 8
  %37 = getelementptr inbounds nuw %struct.List, ptr %36, i32 0, i32 3
  %38 = load ptr, ptr %37, align 8
  %39 = getelementptr inbounds nuw %struct.ForEachState, ptr %11, i32 0, i32 1
  %40 = load i32, ptr %39, align 8
  %41 = sext i32 %40 to i64
  %42 = getelementptr inbounds %union.ListCell, ptr %38, i64 %41
  store ptr %42, ptr %10, align 8
  br label %44

43:                                               ; preds = %26, %22
  store ptr null, ptr %10, align 8
  br label %44

44:                                               ; preds = %43, %34
  %45 = phi i32 [ 1, %34 ], [ 0, %43 ]
  %46 = icmp ne i32 %45, 0
  br i1 %46, label %48, label %47

47:                                               ; preds = %44
  store i32 2, ptr %12, align 4
  br label %144

48:                                               ; preds = %44
  call void @llvm.lifetime.start.p0(i64 8, ptr %13) #8
  %49 = load ptr, ptr %10, align 8
  %50 = load ptr, ptr %49, align 8
  store ptr %50, ptr %13, align 8
  %51 = load ptr, ptr %13, align 8
  %52 = getelementptr inbounds nuw %struct.TargetEntry, ptr %51, i32 0, i32 1
  %53 = load ptr, ptr %52, align 8
  %54 = icmp ne ptr %53, null
  br i1 %54, label %55, label %136

55:                                               ; preds = %48
  %56 = load ptr, ptr %13, align 8
  %57 = getelementptr inbounds nuw %struct.TargetEntry, ptr %56, i32 0, i32 1
  %58 = load ptr, ptr %57, align 8
  %59 = getelementptr inbounds nuw %struct.Node, ptr %58, i32 0, i32 0
  %60 = load i32, ptr %59, align 4
  %61 = icmp eq i32 %60, 318
  br i1 %61, label %62, label %136

62:                                               ; preds = %55
  call void @llvm.lifetime.start.p0(i64 8, ptr %14) #8
  %63 = load ptr, ptr %13, align 8
  %64 = getelementptr inbounds nuw %struct.TargetEntry, ptr %63, i32 0, i32 1
  %65 = load ptr, ptr %64, align 8
  store ptr %65, ptr %14, align 8
  call void @llvm.lifetime.start.p0(i64 8, ptr %15) #8
  %66 = load ptr, ptr %6, align 8
  %67 = getelementptr inbounds nuw %struct.PlaceHolderVar, ptr %66, i32 0, i32 4
  %68 = load i32, ptr %67, align 8
  %69 = load ptr, ptr %14, align 8
  %70 = getelementptr inbounds nuw %struct.PlaceHolderVar, ptr %69, i32 0, i32 4
  %71 = load i32, ptr %70, align 8
  %72 = icmp ne i32 %68, %71
  br i1 %72, label %73, label %74

73:                                               ; preds = %62
  store i32 4, ptr %12, align 4
  br label %135

74:                                               ; preds = %62
  %75 = load i32, ptr %9, align 4
  %76 = icmp eq i32 %75, 1
  br i1 %76, label %77, label %85

77:                                               ; preds = %74
  %78 = load ptr, ptr %6, align 8
  %79 = getelementptr inbounds nuw %struct.PlaceHolderVar, ptr %78, i32 0, i32 3
  %80 = load ptr, ptr %79, align 8
  %81 = load ptr, ptr %14, align 8
  %82 = getelementptr inbounds nuw %struct.PlaceHolderVar, ptr %81, i32 0, i32 3
  %83 = load ptr, ptr %82, align 8
  %84 = call zeroext i1 @bms_is_subset(ptr noundef %80, ptr noundef %83)
  br i1 %84, label %126, label %104

85:                                               ; preds = %74
  %86 = load i32, ptr %9, align 4
  %87 = icmp eq i32 %86, 2
  br i1 %87, label %88, label %96

88:                                               ; preds = %85
  %89 = load ptr, ptr %14, align 8
  %90 = getelementptr inbounds nuw %struct.PlaceHolderVar, ptr %89, i32 0, i32 3
  %91 = load ptr, ptr %90, align 8
  %92 = load ptr, ptr %6, align 8
  %93 = getelementptr inbounds nuw %struct.PlaceHolderVar, ptr %92, i32 0, i32 3
  %94 = load ptr, ptr %93, align 8
  %95 = call zeroext i1 @bms_is_subset(ptr noundef %91, ptr noundef %94)
  br i1 %95, label %126, label %104

96:                                               ; preds = %85
  %97 = load ptr, ptr %14, align 8
  %98 = getelementptr inbounds nuw %struct.PlaceHolderVar, ptr %97, i32 0, i32 3
  %99 = load ptr, ptr %98, align 8
  %100 = load ptr, ptr %6, align 8
  %101 = getelementptr inbounds nuw %struct.PlaceHolderVar, ptr %100, i32 0, i32 3
  %102 = load ptr, ptr %101, align 8
  %103 = call zeroext i1 @bms_equal(ptr noundef %99, ptr noundef %102)
  br i1 %103, label %126, label %104

104:                                              ; preds = %96, %88, %77
  br label %105

105:                                              ; preds = %104
  br i1 true, label %106, label %108

106:                                              ; preds = %105
  %107 = call zeroext i1 @errstart_cold(i32 noundef 21, ptr noundef null) #9
  br i1 %107, label %110, label %123

108:                                              ; preds = %105
  %109 = call zeroext i1 @errstart(i32 noundef 21, ptr noundef null)
  br i1 %109, label %110, label %123

110:                                              ; preds = %108, %106
  %111 = load ptr, ptr %6, align 8
  %112 = getelementptr inbounds nuw %struct.PlaceHolderVar, ptr %111, i32 0, i32 3
  %113 = load ptr, ptr %112, align 8
  %114 = call ptr @bmsToString(ptr noundef %113)
  %115 = load ptr, ptr %14, align 8
  %116 = getelementptr inbounds nuw %struct.PlaceHolderVar, ptr %115, i32 0, i32 3
  %117 = load ptr, ptr %116, align 8
  %118 = call ptr @bmsToString(ptr noundef %117)
  %119 = load ptr, ptr %6, align 8
  %120 = getelementptr inbounds nuw %struct.PlaceHolderVar, ptr %119, i32 0, i32 4
  %121 = load i32, ptr %120, align 8
  %122 = call i32 (ptr, ...) @errmsg_internal(ptr noundef @.str.5, ptr noundef %114, ptr noundef %118, i32 noundef %121)
  call void @errfinish(ptr noundef @.str.1, i32 noundef 2960, ptr noundef @__func__.search_indexed_tlist_for_phv)
  br label %123

123:                                              ; preds = %110, %108, %106
  unreachable

124:                                              ; No predecessors!
  br label %125

125:                                              ; preds = %124
  br label %126

126:                                              ; preds = %125, %96, %88, %77
  %127 = load i32, ptr %8, align 4
  %128 = load ptr, ptr %13, align 8
  %129 = call ptr @makeVarFromTargetEntry(i32 noundef %127, ptr noundef %128)
  store ptr %129, ptr %15, align 8
  %130 = load ptr, ptr %15, align 8
  %131 = getelementptr inbounds nuw %struct.Var, ptr %130, i32 0, i32 9
  store i32 0, ptr %131, align 8
  %132 = load ptr, ptr %15, align 8
  %133 = getelementptr inbounds nuw %struct.Var, ptr %132, i32 0, i32 10
  store i16 0, ptr %133, align 4
  %134 = load ptr, ptr %15, align 8
  store ptr %134, ptr %5, align 8
  store i32 1, ptr %12, align 4
  br label %135

135:                                              ; preds = %126, %73
  call void @llvm.lifetime.end.p0(i64 8, ptr %15) #8
  call void @llvm.lifetime.end.p0(i64 8, ptr %14) #8
  br label %137

136:                                              ; preds = %55, %48
  store i32 0, ptr %12, align 4
  br label %137

137:                                              ; preds = %136, %135
  call void @llvm.lifetime.end.p0(i64 8, ptr %13) #8
  %138 = load i32, ptr %12, align 4
  switch i32 %138, label %144 [
    i32 0, label %139
    i32 4, label %140
  ]

139:                                              ; preds = %137
  br label %140

140:                                              ; preds = %139, %137
  %141 = getelementptr inbounds nuw %struct.ForEachState, ptr %11, i32 0, i32 1
  %142 = load i32, ptr %141, align 8
  %143 = add i32 %142, 1
  store i32 %143, ptr %141, align 8
  br label %22, !llvm.loop !40

144:                                              ; preds = %137, %47
  call void @llvm.lifetime.end.p0(i64 16, ptr %11) #8
  %145 = load i32, ptr %12, align 4
  switch i32 %145, label %147 [
    i32 2, label %146
  ]

146:                                              ; preds = %144
  store ptr null, ptr %5, align 8
  store i32 1, ptr %12, align 4
  br label %147

147:                                              ; preds = %146, %144
  call void @llvm.lifetime.end.p0(i64 8, ptr %10) #8
  %148 = load ptr, ptr %5, align 8
  ret ptr %148
}