; Function Attrs: nounwind uwtable
define internal fastcc ptr @search_indexed_tlist_for_phv(ptr noundef nonnull readonly captures(none) %0, ptr readonly captures(address_is_null) %.0.val, i32 noundef %1, i32 noundef %2) unnamed_addr #0 {
  %.not = icmp eq ptr %.0.val, null
  br i1 %.not, label %.loopexit, label %.lr.ph

.lr.ph:                                           ; preds = %3
  %4 = getelementptr inbounds nuw i8, ptr %.0.val, i64 4
  %5 = load i32, ptr %4, align 4
  %6 = getelementptr inbounds nuw i8, ptr %0, i64 32
  %7 = icmp sgt i32 %5, 0
  br i1 %7, label %.lr.ph18, label %.loopexit

.lr.ph18:                                         ; preds = %.lr.ph
  %8 = getelementptr inbounds nuw i8, ptr %.0.val, i64 16
  %9 = load ptr, ptr %8, align 8
  %wide.trip.count = zext nneg i32 %5 to i64
  br label %10

10:                                               ; preds = %.lr.ph18, %50
  %indvars.iv = phi i64 [ 0, %.lr.ph18 ], [ %indvars.iv.next, %50 ]
  %11 = getelementptr inbounds nuw %union.ListCell, ptr %9, i64 %indvars.iv
  %12 = load ptr, ptr %11, align 8
  %13 = getelementptr inbounds nuw i8, ptr %12, i64 8
  %14 = load ptr, ptr %13, align 8
  %.not37 = icmp eq ptr %14, null
  br i1 %.not37, label %50, label %15

15:                                               ; preds = %10
  %16 = load i32, ptr %14, align 4
  %17 = icmp eq i32 %16, 318
  br i1 %17, label %18, label %50

18:                                               ; preds = %15
  %19 = load i32, ptr %6, align 8
  %20 = getelementptr inbounds nuw i8, ptr %14, i64 32
  %21 = load i32, ptr %20, align 8
  %.not38 = icmp eq i32 %19, %21
  br i1 %.not38, label %.split, label %50

.split:                                           ; preds = %18
  switch i32 %2, label %34 [
    i32 1, label %22
    i32 2, label %28
  ]

22:                                               ; preds = %.split
  %23 = getelementptr inbounds nuw i8, ptr %0, i64 24
  %24 = load ptr, ptr %23, align 8
  %25 = getelementptr inbounds nuw i8, ptr %14, i64 24
  %26 = load ptr, ptr %25, align 8
  %27 = tail call zeroext i1 @bms_is_subset(ptr noundef %24, ptr noundef %26) #8
  br i1 %27, label %51, label %40

28:                                               ; preds = %.split
  %29 = getelementptr inbounds nuw i8, ptr %14, i64 24
  %30 = load ptr, ptr %29, align 8
  %31 = getelementptr inbounds nuw i8, ptr %0, i64 24
  %32 = load ptr, ptr %31, align 8
  %33 = tail call zeroext i1 @bms_is_subset(ptr noundef %30, ptr noundef %32) #8
  br i1 %33, label %51, label %40

34:                                               ; preds = %.split
  %35 = getelementptr inbounds nuw i8, ptr %14, i64 24
  %36 = load ptr, ptr %35, align 8
  %37 = getelementptr inbounds nuw i8, ptr %0, i64 24
  %38 = load ptr, ptr %37, align 8
  %39 = tail call zeroext i1 @bms_equal(ptr noundef %36, ptr noundef %38) #8
  br i1 %39, label %51, label %40

40:                                               ; preds = %34, %28, %22
  %41 = tail call zeroext i1 @errstart_cold(i32 noundef 21, ptr noundef null) #9
  tail call void @llvm.assume(i1 %41)
  %42 = getelementptr inbounds nuw i8, ptr %0, i64 24
  %43 = load ptr, ptr %42, align 8
  %44 = tail call ptr @bmsToString(ptr noundef %43) #8
  %45 = getelementptr inbounds nuw i8, ptr %14, i64 24
  %46 = load ptr, ptr %45, align 8
  %47 = tail call ptr @bmsToString(ptr noundef %46) #8
  %48 = load i32, ptr %6, align 8
  %49 = tail call i32 (ptr, ...) @errmsg_internal(ptr noundef nonnull @.str.5, ptr noundef %44, ptr noundef %47, i32 noundef %48) #8
  tail call void @errfinish(ptr noundef nonnull @.str.1, i32 noundef 2960, ptr noundef nonnull @__func__.search_indexed_tlist_for_phv) #8
  unreachable

50:                                               ; preds = %18, %15, %10
  %indvars.iv.next = add nuw nsw i64 %indvars.iv, 1
  %exitcond.not = icmp eq i64 %indvars.iv.next, %wide.trip.count
  br i1 %exitcond.not, label %.loopexit, label %10

51:                                               ; preds = %34, %28, %22
  %52 = tail call ptr @makeVarFromTargetEntry(i32 noundef %1, ptr noundef nonnull %12) #8
  %53 = getelementptr inbounds nuw i8, ptr %52, i64 40
  store i32 0, ptr %53, align 8
  %54 = getelementptr inbounds nuw i8, ptr %52, i64 44
  store i16 0, ptr %54, align 4
  br label %.loopexit

.loopexit:                                        ; preds = %50, %3, %.lr.ph, %51
  %55 = phi ptr [ %52, %51 ], [ null, %.lr.ph ], [ null, %3 ], [ null, %50 ]
  ret ptr %55
}